target datalayout = "e-m:e-p270:32:32-p271:32:32-p272:64:64-i64:64-i128:128-f80:128-n8:16:32:64-S128"
target triple = "x86_64-pc-linux-gnu"

%"class.clang::VariablePattern" = type { %"class.std::vector.459", %"class.std::vector.464" }
%"class.std::vector.459" = type { %"struct.std::_Vector_base.460" }
%"struct.std::_Vector_base.460" = type { %"struct.std::_Vector_base<clang::VariablePattern::VariableOccurence, std::allocator<clang::VariablePattern::VariableOccurence>>::_Vector_impl" }
%"struct.std::_Vector_base<clang::VariablePattern::VariableOccurence, std::allocator<clang::VariablePattern::VariableOccurence>>::_Vector_impl" = type { %"struct.std::_Vector_base<clang::VariablePattern::VariableOccurence, std::allocator<clang::VariablePattern::VariableOccurence>>::_Vector_impl_data" }
%"struct.std::_Vector_base<clang::VariablePattern::VariableOccurence, std::allocator<clang::VariablePattern::VariableOccurence>>::_Vector_impl_data" = type { ptr, ptr, ptr }
%"class.std::vector.464" = type { %"struct.std::_Vector_base.465" }
%"struct.std::_Vector_base.465" = type { %"struct.std::_Vector_base<const clang::VarDecl *, std::allocator<const clang::VarDecl *>>::_Vector_impl" }
%"struct.std::_Vector_base<const clang::VarDecl *, std::allocator<const clang::VarDecl *>>::_Vector_impl" = type { %"struct.std::_Vector_base<const clang::VarDecl *, std::allocator<const clang::VarDecl *>>::_Vector_impl_data" }
%"struct.std::_Vector_base<const clang::VarDecl *, std::allocator<const clang::VarDecl *>>::_Vector_impl_data" = type { ptr, ptr, ptr }
%"struct.clang::VariablePattern::VariableOccurence" = type { i64, ptr }
%"struct.clang::VariablePattern::SuspiciousClonePair::SuspiciousCloneInfo" = type { ptr, ptr, ptr }
%"struct.clang::VariablePattern::SuspiciousClonePair" = type { %"struct.clang::VariablePattern::SuspiciousClonePair::SuspiciousCloneInfo", %"struct.clang::VariablePattern::SuspiciousClonePair::SuspiciousCloneInfo" }

; Function Attrs: mustprogress nounwind uwtable
define linkonce_odr void @_ZSt4swapIN5clang15VariablePattern19SuspiciousClonePair19SuspiciousCloneInfoEENSt9enable_ifIXsr6__and_ISt6__not_ISt15__is_tuple_likeIT_EESt21is_move_constructibleIS7_ESt18is_move_assignableIS7_EEE5valueEvE4typeERS7_SG_(ptr noundef nonnull align 8 dereferenceable(24) %0, ptr noundef nonnull align 8 dereferenceable(24) %1) #0 comdat {
  %3 = alloca ptr, align 8
  %4 = alloca ptr, align 8
  %5 = alloca %"struct.clang::VariablePattern::SuspiciousClonePair::SuspiciousCloneInfo", align 8
  store ptr %0, ptr %3, align 8
  store ptr %1, ptr %4, align 8
  %6 = load ptr, ptr %3, align 8
  call void @llvm.memcpy.p0.p0.i64(ptr align 8 %5, ptr align 8 %6, i64 24, i1 false)
  %7 = load ptr, ptr %4, align 8
  %8 = load ptr, ptr %3, align 8
  call void @llvm.memcpy.p0.p0.i64(ptr align 8 %8, ptr align 8 %7, i64 24, i1 false)
  %9 = load ptr, ptr %4, align 8
  call void @llvm.memcpy.p0.p0.i64(ptr align 8 %9, ptr align 8 %5, i64 24, i1 false)
  ret void
}

; Function Attrs: mustprogress nounwind uwtable
define linkonce_odr hidden noundef nonnull align 8 dereferenceable(8) ptr @_ZNKSt6vectorIPKN5clang7VarDeclESaIS3_EEixEm(ptr noundef nonnull align 8 dereferenceable(24) %0, i64 noundef %1) #0 comdat align 2 {
  %3 = alloca ptr, align 8
  %4 = alloca i64, align 8
  store ptr %0, ptr %3, align 8
  store i64 %1, ptr %4, align 8
  %5 = load ptr, ptr %3, align 8
  %6 = getelementptr inbounds nuw %"struct.std::_Vector_base.465", ptr %5, i32 0, i32 0
  %7 = getelementptr inbounds nuw %"struct.std::_Vector_base<const clang::VarDecl *, std::allocator<const clang::VarDecl *>>::_Vector_impl_data", ptr %6, i32 0, i32 0
  %8 = load ptr, ptr %7, align 8
  %9 = load i64, ptr %4, align 8
  %10 = getelementptr inbounds ptr, ptr %8, i64 %9
  ret ptr %10
}

; Function Attrs: mustprogress nounwind uwtable
define linkonce_odr hidden void @_ZN5clang15VariablePattern19SuspiciousClonePair19SuspiciousCloneInfoC2EPKNS_7VarDeclEPKNS_4StmtES5_(ptr noundef nonnull align 8 dereferenceable(24) %0, ptr noundef %1, ptr noundef %2, ptr noundef %3) unnamed_addr #0 comdat align 2 {
  %5 = alloca ptr, align 8
  %6 = alloca ptr, align 8
  %7 = alloca ptr, align 8
  %8 = alloca ptr, align 8
  store ptr %0, ptr %5, align 8
  store ptr %1, ptr %6, align 8
  store ptr %2, ptr %7, align 8
  store ptr %3, ptr %8, align 8
  %9 = load ptr, ptr %5, align 8
  %10 = getelementptr inbounds nuw %"struct.clang::VariablePattern::SuspiciousClonePair::SuspiciousCloneInfo", ptr %9, i32 0, i32 0
  %11 = load ptr, ptr %6, align 8
  store ptr %11, ptr %10, align 8
  %12 = getelementptr inbounds nuw %"struct.clang::VariablePattern::SuspiciousClonePair::SuspiciousCloneInfo", ptr %9, i32 0, i32 1
  %13 = load ptr, ptr %7, align 8
  store ptr %13, ptr %12, align 8
  %14 = getelementptr inbounds nuw %"struct.clang::VariablePattern::SuspiciousClonePair::SuspiciousCloneInfo", ptr %9, i32 0, i32 2
  %15 = load ptr, ptr %8, align 8
  store ptr %15, ptr %14, align 8
  ret void
}

; Function Attrs: mustprogress nounwind uwtable
define linkonce_odr hidden noundef nonnull align 8 dereferenceable(8) ptr @_ZNSt6vectorIPKN5clang7VarDeclESaIS3_EEixEm(ptr noundef nonnull align 8 dereferenceable(24) %0, i64 noundef %1) #0 comdat align 2 {
  %3 = alloca ptr, align 8
  %4 = alloca i64, align 8
  store ptr %0, ptr %3, align 8
  store i64 %1, ptr %4, align 8
  %5 = load ptr, ptr %3, align 8
  %6 = getelementptr inbounds nuw %"struct.std::_Vector_base.465", ptr %5, i32 0, i32 0
  %7 = getelementptr inbounds nuw %"struct.std::_Vector_base<const clang::VarDecl *, std::allocator<const clang::VarDecl *>>::_Vector_impl_data", ptr %6, i32 0, i32 0
  %8 = load ptr, ptr %7, align 8
  %9 = load i64, ptr %4, align 8
  %10 = getelementptr inbounds ptr, ptr %8, i64 %9
  ret ptr %10
}

; Function Attrs: mustprogress nounwind uwtable
define linkonce_odr hidden noundef i64 @_ZNKSt6vectorIPKN5clang7VarDeclESaIS3_EE4sizeEv(ptr noundef nonnull align 8 dereferenceable(24) %0) #0 comdat align 2 {
  %2 = alloca ptr, align 8
  store ptr %0, ptr %2, align 8
  %3 = load ptr, ptr %2, align 8
  %4 = getelementptr inbounds nuw %"struct.std::_Vector_base.465", ptr %3, i32 0, i32 0
  %5 = getelementptr inbounds nuw %"struct.std::_Vector_base<const clang::VarDecl *, std::allocator<const clang::VarDecl *>>::_Vector_impl_data", ptr %4, i32 0, i32 1
  %6 = load ptr, ptr %5, align 8
  %7 = getelementptr inbounds nuw %"struct.std::_Vector_base.465", ptr %3, i32 0, i32 0
  %8 = getelementptr inbounds nuw %"struct.std::_Vector_base<const clang::VarDecl *, std::allocator<const clang::VarDecl *>>::_Vector_impl_data", ptr %7, i32 0, i32 0
  %9 = load ptr, ptr %8, align 8
  %10 = ptrtoint ptr %6 to i64
  %11 = ptrtoint ptr %9 to i64
  %12 = sub i64 %10, %11
  %13 = sdiv exact i64 %12, 8
  ret i64 %13
}

; Function Attrs: mustprogress nounwind uwtable
define linkonce_odr hidden noundef nonnull align 8 dereferenceable(16) ptr @_ZNKSt6vectorIN5clang15VariablePattern17VariableOccurenceESaIS2_EEixEm(ptr noundef nonnull align 8 dereferenceable(24) %0, i64 noundef %1) #0 comdat align 2 {
  %3 = alloca ptr, align 8
  %4 = alloca i64, align 8
  store ptr %0, ptr %3, align 8
  store i64 %1, ptr %4, align 8
  %5 = load ptr, ptr %3, align 8
  %6 = getelementptr inbounds nuw %"struct.std::_Vector_base.460", ptr %5, i32 0, i32 0
  %7 = getelementptr inbounds nuw %"struct.std::_Vector_base<clang::VariablePattern::VariableOccurence, std::allocator<clang::VariablePattern::VariableOccurence>>::_Vector_impl_data", ptr %6, i32 0, i32 0
  %8 = load ptr, ptr %7, align 8
  %9 = load i64, ptr %4, align 8
  %10 = getelementptr inbounds %"struct.clang::VariablePattern::VariableOccurence", ptr %8, i64 %9
  ret ptr %10
}

; Function Attrs: mustprogress nounwind uwtable
define linkonce_odr hidden noundef nonnull align 8 dereferenceable(16) ptr @_ZNSt6vectorIN5clang15VariablePattern17VariableOccurenceESaIS2_EEixEm(ptr noundef nonnull align 8 dereferenceable(24) %0, i64 noundef %1) #0 comdat align 2 {
  %3 = alloca ptr, align 8
  %4 = alloca i64, align 8
  store ptr %0, ptr %3, align 8
  store i64 %1, ptr %4, align 8
  %5 = load ptr, ptr %3, align 8
  %6 = getelementptr inbounds nuw %"struct.std::_Vector_base.460", ptr %5, i32 0, i32 0
  %7 = getelementptr inbounds nuw %"struct.std::_Vector_base<clang::VariablePattern::VariableOccurence, std::allocator<clang::VariablePattern::VariableOccurence>>::_Vector_impl_data", ptr %6, i32 0, i32 0
  %8 = load ptr, ptr %7, align 8
  %9 = load i64, ptr %4, align 8
  %10 = getelementptr inbounds %"struct.clang::VariablePattern::VariableOccurence", ptr %8, i64 %9
  ret ptr %10
}

; Function Attrs: mustprogress nounwind uwtable
define linkonce_odr hidden noundef i64 @_ZNKSt6vectorIN5clang15VariablePattern17VariableOccurenceESaIS2_EE4sizeEv(ptr noundef nonnull align 8 dereferenceable(24) %0) #0 comdat align 2 {
  %2 = alloca ptr, align 8
  store ptr %0, ptr %2, align 8
  %3 = load ptr, ptr %2, align 8
  %4 = getelementptr inbounds nuw %"struct.std::_Vector_base.460", ptr %3, i32 0, i32 0
  %5 = getelementptr inbounds nuw %"struct.std::_Vector_base<clang::VariablePattern::VariableOccurence, std::allocator<clang::VariablePattern::VariableOccurence>>::_Vector_impl_data", ptr %4, i32 0, i32 1
  %6 = load ptr, ptr %5, align 8
  %7 = getelementptr inbounds nuw %"struct.std::_Vector_base.460", ptr %3, i32 0, i32 0
  %8 = getelementptr inbounds nuw %"struct.std::_Vector_base<clang::VariablePattern::VariableOccurence, std::allocator<clang::VariablePattern::VariableOccurence>>::_Vector_impl_data", ptr %7, i32 0, i32 0
  %9 = load ptr, ptr %8, align 8
  %10 = ptrtoint ptr %6 to i64
  %11 = ptrtoint ptr %9 to i64
  %12 = sub i64 %10, %11
  %13 = sdiv exact i64 %12, 16
  ret i64 %13
}

; Function Attrs: mustprogress nounwind uwtable
define dso_local noundef i32 @_ZN5clang15VariablePattern23countPatternDifferencesERKS0_PNS0_19SuspiciousClonePairE(ptr noundef nonnull align 8 dereferenceable(48) %0, ptr noundef nonnull align 8 dereferenceable(48) %1, ptr noundef %2) #0 align 2 {
  %4 = alloca ptr, align 8
  %5 = alloca ptr, align 8
  %6 = alloca ptr, align 8
  %7 = alloca i32, align 4
  %8 = alloca i32, align 4
  %9 = alloca %"struct.clang::VariablePattern::VariableOccurence", align 8
  %10 = alloca %"struct.clang::VariablePattern::VariableOccurence", align 8
  %11 = alloca ptr, align 8
  %12 = alloca %"struct.clang::VariablePattern::SuspiciousClonePair::SuspiciousCloneInfo", align 8
  %13 = alloca ptr, align 8
  %14 = alloca %"struct.clang::VariablePattern::SuspiciousClonePair::SuspiciousCloneInfo", align 8
  store ptr %0, ptr %4, align 8
  store ptr %1, ptr %5, align 8
  store ptr %2, ptr %6, align 8
  %15 = load ptr, ptr %4, align 8
  store i32 0, ptr %7, align 4
  store i32 0, ptr %8, align 4
  br label %16

16:                                               ; preds = %107, %3
  %17 = load i32, ptr %8, align 4
  %18 = zext i32 %17 to i64
  %19 = getelementptr inbounds nuw %"class.clang::VariablePattern", ptr %15, i32 0, i32 0
  %20 = call noundef i64 @_ZNKSt6vectorIN5clang15VariablePattern17VariableOccurenceESaIS2_EE4sizeEv(ptr noundef nonnull align 8 dereferenceable(24) %19) #12
  %21 = icmp ult i64 %18, %20
  br i1 %21, label %22, label %110

22:                                               ; preds = %16
  %23 = getelementptr inbounds nuw %"class.clang::VariablePattern", ptr %15, i32 0, i32 0
  %24 = load i32, ptr %8, align 4
  %25 = zext i32 %24 to i64
  %26 = call noundef nonnull align 8 dereferenceable(16) ptr @_ZNSt6vectorIN5clang15VariablePattern17VariableOccurenceESaIS2_EEixEm(ptr noundef nonnull align 8 dereferenceable(24) %23, i64 noundef %25) #12
  call void @llvm.memcpy.p0.p0.i64(ptr align 8 %9, ptr align 8 %26, i64 16, i1 false)
  %27 = load ptr, ptr %5, align 8
  %28 = getelementptr inbounds nuw %"class.clang::VariablePattern", ptr %27, i32 0, i32 0
  %29 = load i32, ptr %8, align 4
  %30 = zext i32 %29 to i64
  %31 = call noundef nonnull align 8 dereferenceable(16) ptr @_ZNKSt6vectorIN5clang15VariablePattern17VariableOccurenceESaIS2_EEixEm(ptr noundef nonnull align 8 dereferenceable(24) %28, i64 noundef %30) #12
  call void @llvm.memcpy.p0.p0.i64(ptr align 8 %10, ptr align 8 %31, i64 16, i1 false)
  %32 = getelementptr inbounds nuw %"struct.clang::VariablePattern::VariableOccurence", ptr %9, i32 0, i32 0
  %33 = load i64, ptr %32, align 8
  %34 = getelementptr inbounds nuw %"struct.clang::VariablePattern::VariableOccurence", ptr %10, i32 0, i32 0
  %35 = load i64, ptr %34, align 8
  %36 = icmp eq i64 %33, %35
  br i1 %36, label %37, label %38

37:                                               ; preds = %22
  br label %107

38:                                               ; preds = %22
  %39 = load i32, ptr %7, align 4
  %40 = add i32 %39, 1
  store i32 %40, ptr %7, align 4
  %41 = load ptr, ptr %6, align 8
  %42 = icmp eq ptr %41, null
  br i1 %42, label %43, label %44

43:                                               ; preds = %38
  br label %107

44:                                               ; preds = %38
  %45 = load i32, ptr %7, align 4
  %46 = icmp ne i32 %45, 1
  br i1 %46, label %47, label %48

47:                                               ; preds = %44
  br label %107

48:                                               ; preds = %44
  store ptr null, ptr %11, align 8
  %49 = getelementptr inbounds nuw %"struct.clang::VariablePattern::VariableOccurence", ptr %10, i32 0, i32 0
  %50 = load i64, ptr %49, align 8
  %51 = getelementptr inbounds nuw %"class.clang::VariablePattern", ptr %15, i32 0, i32 1
  %52 = call noundef i64 @_ZNKSt6vectorIPKN5clang7VarDeclESaIS3_EE4sizeEv(ptr noundef nonnull align 8 dereferenceable(24) %51) #12
  %53 = icmp ult i64 %50, %52
  br i1 %53, label %54, label %60

54:                                               ; preds = %48
  %55 = getelementptr inbounds nuw %"class.clang::VariablePattern", ptr %15, i32 0, i32 1
  %56 = getelementptr inbounds nuw %"struct.clang::VariablePattern::VariableOccurence", ptr %10, i32 0, i32 0
  %57 = load i64, ptr %56, align 8
  %58 = call noundef nonnull align 8 dereferenceable(8) ptr @_ZNSt6vectorIPKN5clang7VarDeclESaIS3_EEixEm(ptr noundef nonnull align 8 dereferenceable(24) %55, i64 noundef %57) #12
  %59 = load ptr, ptr %58, align 8
  store ptr %59, ptr %11, align 8
  br label %60

60:                                               ; preds = %54, %48
  %61 = getelementptr inbounds nuw %"class.clang::VariablePattern", ptr %15, i32 0, i32 1
  %62 = getelementptr inbounds nuw %"struct.clang::VariablePattern::VariableOccurence", ptr %9, i32 0, i32 0
  %63 = load i64, ptr %62, align 8
  %64 = call noundef nonnull align 8 dereferenceable(8) ptr @_ZNSt6vectorIPKN5clang7VarDeclESaIS3_EEixEm(ptr noundef nonnull align 8 dereferenceable(24) %61, i64 noundef %63) #12
  %65 = load ptr, ptr %64, align 8
  %66 = getelementptr inbounds nuw %"struct.clang::VariablePattern::VariableOccurence", ptr %9, i32 0, i32 1
  %67 = load ptr, ptr %66, align 8
  %68 = load ptr, ptr %11, align 8
  call void @_ZN5clang15VariablePattern19SuspiciousClonePair19SuspiciousCloneInfoC2EPKNS_7VarDeclEPKNS_4StmtES5_(ptr noundef nonnull align 8 dereferenceable(24) %12, ptr noundef %65, ptr noundef %67, ptr noundef %68)
  %69 = load ptr, ptr %6, align 8
  %70 = getelementptr inbounds nuw %"struct.clang::VariablePattern::SuspiciousClonePair", ptr %69, i32 0, i32 0
  call void @llvm.memcpy.p0.p0.i64(ptr align 8 %70, ptr align 8 %12, i64 24, i1 false)
  store ptr null, ptr %13, align 8
  %71 = getelementptr inbounds nuw %"struct.clang::VariablePattern::VariableOccurence", ptr %9, i32 0, i32 0
  %72 = load i64, ptr %71, align 8
  %73 = load ptr, ptr %5, align 8
  %74 = getelementptr inbounds nuw %"class.clang::VariablePattern", ptr %73, i32 0, i32 1
  %75 = call noundef i64 @_ZNKSt6vectorIPKN5clang7VarDeclESaIS3_EE4sizeEv(ptr noundef nonnull align 8 dereferenceable(24) %74) #12
  %76 = icmp ult i64 %72, %75
  br i1 %76, label %77, label %84

77:                                               ; preds = %60
  %78 = load ptr, ptr %5, align 8
  %79 = getelementptr inbounds nuw %"class.clang::VariablePattern", ptr %78, i32 0, i32 1
  %80 = getelementptr inbounds nuw %"struct.clang::VariablePattern::VariableOccurence", ptr %9, i32 0, i32 0
  %81 = load i64, ptr %80, align 8
  %82 = call noundef nonnull align 8 dereferenceable(8) ptr @_ZNKSt6vectorIPKN5clang7VarDeclESaIS3_EEixEm(ptr noundef nonnull align 8 dereferenceable(24) %79, i64 noundef %81) #12
  %83 = load ptr, ptr %82, align 8
  store ptr %83, ptr %13, align 8
  br label %84

84:                                               ; preds = %77, %60
  %85 = load ptr, ptr %5, align 8
  %86 = getelementptr inbounds nuw %"class.clang::VariablePattern", ptr %85, i32 0, i32 1
  %87 = getelementptr inbounds nuw %"struct.clang::VariablePattern::VariableOccurence", ptr %10, i32 0, i32 0
  %88 = load i64, ptr %87, align 8
  %89 = call noundef nonnull align 8 dereferenceable(8) ptr @_ZNKSt6vectorIPKN5clang7VarDeclESaIS3_EEixEm(ptr noundef nonnull align 8 dereferenceable(24) %86, i64 noundef %88) #12
  %90 = load ptr, ptr %89, align 8
  %91 = getelementptr inbounds nuw %"struct.clang::VariablePattern::VariableOccurence", ptr %10, i32 0, i32 1
  %92 = load ptr, ptr %91, align 8
  %93 = load ptr, ptr %13, align 8
  call void @_ZN5clang15VariablePattern19SuspiciousClonePair19SuspiciousCloneInfoC2EPKNS_7VarDeclEPKNS_4StmtES5_(ptr noundef nonnull align 8 dereferenceable(24) %14, ptr noundef %90, ptr noundef %92, ptr noundef %93)
  %94 = load ptr, ptr %6, align 8
  %95 = getelementptr inbounds nuw %"struct.clang::VariablePattern::SuspiciousClonePair", ptr %94, i32 0, i32 1
  call void @llvm.memcpy.p0.p0.i64(ptr align 8 %95, ptr align 8 %14, i64 24, i1 false)
  %96 = load ptr, ptr %6, align 8
  %97 = getelementptr inbounds nuw %"struct.clang::VariablePattern::SuspiciousClonePair", ptr %96, i32 0, i32 0
  %98 = getelementptr inbounds nuw %"struct.clang::VariablePattern::SuspiciousClonePair::SuspiciousCloneInfo", ptr %97, i32 0, i32 2
  %99 = load ptr, ptr %98, align 8
  %100 = icmp ne ptr %99, null
  br i1 %100, label %106, label %101

101:                                              ; preds = %84
  %102 = load ptr, ptr %6, align 8
  %103 = getelementptr inbounds nuw %"struct.clang::VariablePattern::SuspiciousClonePair", ptr %102, i32 0, i32 0
  %104 = load ptr, ptr %6, align 8
  %105 = getelementptr inbounds nuw %"struct.clang::VariablePattern::SuspiciousClonePair", ptr %104, i32 0, i32 1
  call void @_ZSt4swapIN5clang15VariablePattern19SuspiciousClonePair19SuspiciousCloneInfoEENSt9enable_ifIXsr6__and_ISt6__not_ISt15__is_tuple_likeIT_EESt21is_move_constructibleIS7_ESt18is_move_assignableIS7_EEE5valueEvE4typeERS7_SG_(ptr noundef nonnull align 8 dereferenceable(24) %103, ptr noundef nonnull align 8 dereferenceable(24) %105) #12
  br label %106

106:                                              ; preds = %101, %84
  br label %107

107:                                              ; preds = %106, %47, %43, %37
  %108 = load i32, ptr %8, align 4
  %109 = add i32 %108, 1
  store i32 %109, ptr %8, align 4
  br label %16, !llvm.loop !14

110:                                              ; preds = %16
  %111 = load i32, ptr %7, align 4
  ret i32 %111
}