; Function Attrs: mustprogress nofree norecurse nosync nounwind memory(read, argmem: readwrite, inaccessiblemem: none) uwtable
define dso_local noundef i32 @_ZN5clang15VariablePattern23countPatternDifferencesERKS0_PNS0_19SuspiciousClonePairE(ptr noundef nonnull readonly align 8 captures(none) dereferenceable(48) %0, ptr noundef nonnull readonly align 8 captures(none) dereferenceable(48) %1, ptr noundef %2) local_unnamed_addr #8 align 2 {
  %4 = alloca %"struct.clang::VariablePattern::SuspiciousClonePair::SuspiciousCloneInfo", align 8
  %5 = getelementptr inbounds nuw i8, ptr %0, i64 8
  %6 = load ptr, ptr %5, align 8
  %7 = load ptr, ptr %0, align 8
  %.not40 = icmp eq ptr %6, %7
  br i1 %.not40, label %._crit_edge, label %.lr.ph

.lr.ph:                                           ; preds = %3
  %8 = icmp eq ptr %2, null
  %9 = getelementptr inbounds nuw i8, ptr %0, i64 24
  %10 = getelementptr inbounds nuw i8, ptr %0, i64 32
  %.sroa.236.0..sroa_idx = getelementptr inbounds nuw i8, ptr %2, i64 8
  %.sroa.337.0..sroa_idx = getelementptr inbounds nuw i8, ptr %2, i64 16
  %11 = getelementptr inbounds nuw i8, ptr %1, i64 24
  %12 = getelementptr inbounds nuw i8, ptr %1, i64 32
  %13 = getelementptr inbounds nuw i8, ptr %2, i64 24
  %.sroa.2.0..sroa_idx = getelementptr inbounds nuw i8, ptr %2, i64 32
  %.sroa.3.0..sroa_idx = getelementptr inbounds nuw i8, ptr %2, i64 40
  br i1 %8, label %.lr.ph.split.us, label %.lr.ph.split

.lr.ph.split.us:                                  ; preds = %.lr.ph
  %14 = load ptr, ptr %1, align 8
  %15 = ptrtoint ptr %6 to i64
  %16 = ptrtoint ptr %7 to i64
  %17 = sub i64 %15, %16
  %18 = ashr exact i64 %17, 4
  br label %19

19:                                               ; preds = %19, %.lr.ph.split.us
  %20 = phi i64 [ 0, %.lr.ph.split.us ], [ %26, %19 ]
  %.02939.us = phi i32 [ 0, %.lr.ph.split.us ], [ %spec.select, %19 ]
  %.03038.us = phi i32 [ 0, %.lr.ph.split.us ], [ %25, %19 ]
  %21 = getelementptr inbounds nuw %"struct.clang::VariablePattern::VariableOccurence", ptr %7, i64 %20
  %.sroa.06.0.copyload.us = load i64, ptr %21, align 8
  %22 = getelementptr inbounds nuw %"struct.clang::VariablePattern::VariableOccurence", ptr %14, i64 %20
  %.sroa.0.0.copyload.us = load i64, ptr %22, align 8
  %23 = icmp ne i64 %.sroa.06.0.copyload.us, %.sroa.0.0.copyload.us
  %24 = zext i1 %23 to i32
  %spec.select = add i32 %.02939.us, %24
  %25 = add i32 %.03038.us, 1
  %26 = zext i32 %25 to i64
  %27 = icmp ugt i64 %18, %26
  br i1 %27, label %19, label %._crit_edge, !llvm.loop !48

.lr.ph.split:                                     ; preds = %.lr.ph, %64
  %28 = phi ptr [ %68, %64 ], [ %7, %.lr.ph ]
  %29 = phi i64 [ %66, %64 ], [ 0, %.lr.ph ]
  %.02939 = phi i32 [ %.1, %64 ], [ 0, %.lr.ph ]
  %.03038 = phi i32 [ %65, %64 ], [ 0, %.lr.ph ]
  %30 = getelementptr inbounds nuw %"struct.clang::VariablePattern::VariableOccurence", ptr %28, i64 %29
  %.sroa.06.0.copyload = load i64, ptr %30, align 8
  %.sroa.510.0..sroa_idx = getelementptr inbounds nuw i8, ptr %30, i64 8
  %.sroa.510.0.copyload = load ptr, ptr %.sroa.510.0..sroa_idx, align 8
  %31 = load ptr, ptr %1, align 8
  %32 = getelementptr inbounds nuw %"struct.clang::VariablePattern::VariableOccurence", ptr %31, i64 %29
  %.sroa.0.0.copyload = load i64, ptr %32, align 8
  %.sroa.5.0..sroa_idx = getelementptr inbounds nuw i8, ptr %32, i64 8
  %.sroa.5.0.copyload = load ptr, ptr %.sroa.5.0..sroa_idx, align 8
  %33 = icmp eq i64 %.sroa.06.0.copyload, %.sroa.0.0.copyload
  br i1 %33, label %64, label %34

34:                                               ; preds = %.lr.ph.split
  %35 = add i32 %.02939, 1
  %.not41 = icmp eq i32 %.02939, 0
  br i1 %.not41, label %36, label %64

36:                                               ; preds = %34
  %37 = load ptr, ptr %10, align 8
  %38 = load ptr, ptr %9, align 8
  %39 = ptrtoint ptr %37 to i64
  %40 = ptrtoint ptr %38 to i64
  %41 = sub i64 %39, %40
  %42 = ashr exact i64 %41, 3
  %43 = icmp ult i64 %.sroa.0.0.copyload, %42
  br i1 %43, label %44, label %47

44:                                               ; preds = %36
  %45 = getelementptr inbounds ptr, ptr %38, i64 %.sroa.0.0.copyload
  %46 = load ptr, ptr %45, align 8
  br label %47

47:                                               ; preds = %44, %36
  %.028 = phi ptr [ %46, %44 ], [ null, %36 ]
  %48 = getelementptr inbounds ptr, ptr %38, i64 %.sroa.06.0.copyload
  %49 = load ptr, ptr %48, align 8
  store ptr %49, ptr %2, align 8
  store ptr %.sroa.510.0.copyload, ptr %.sroa.236.0..sroa_idx, align 8
  store ptr %.028, ptr %.sroa.337.0..sroa_idx, align 8
  %50 = load ptr, ptr %12, align 8
  %51 = load ptr, ptr %11, align 8
  %52 = ptrtoint ptr %50 to i64
  %53 = ptrtoint ptr %51 to i64
  %54 = sub i64 %52, %53
  %55 = ashr exact i64 %54, 3
  %56 = icmp ult i64 %.sroa.06.0.copyload, %55
  br i1 %56, label %57, label %60

57:                                               ; preds = %47
  %58 = getelementptr inbounds ptr, ptr %51, i64 %.sroa.06.0.copyload
  %59 = load ptr, ptr %58, align 8
  br label %60

60:                                               ; preds = %57, %47
  %.0 = phi ptr [ %59, %57 ], [ null, %47 ]
  %61 = getelementptr inbounds ptr, ptr %51, i64 %.sroa.0.0.copyload
  %62 = load ptr, ptr %61, align 8
  store ptr %62, ptr %13, align 8
  store ptr %.sroa.5.0.copyload, ptr %.sroa.2.0..sroa_idx, align 8
  store ptr %.0, ptr %.sroa.3.0..sroa_idx, align 8
  %.not = icmp eq ptr %.028, null
  br i1 %.not, label %63, label %64

63:                                               ; preds = %60
  call void @llvm.lifetime.start.p0(i64 24, ptr nonnull %4)
  call void @llvm.memcpy.p0.p0.i64(ptr noundef nonnull align 8 dereferenceable(24) %4, ptr noundef nonnull align 8 dereferenceable(24) %2, i64 24, i1 false)
  tail call void @llvm.memcpy.p0.p0.i64(ptr noundef nonnull align 8 dereferenceable(24) %2, ptr noundef nonnull align 8 dereferenceable(24) %13, i64 24, i1 false)
  call void @llvm.memcpy.p0.p0.i64(ptr noundef nonnull align 8 dereferenceable(24) %13, ptr noundef nonnull align 8 dereferenceable(24) %4, i64 24, i1 false)
  call void @llvm.lifetime.end.p0(i64 24, ptr nonnull %4)
  br label %64

64:                                               ; preds = %60, %63, %34, %.lr.ph.split
  %.1 = phi i32 [ %.02939, %.lr.ph.split ], [ %35, %34 ], [ 1, %60 ], [ 1, %63 ]
  %65 = add i32 %.03038, 1
  %66 = zext i32 %65 to i64
  %67 = load ptr, ptr %5, align 8
  %68 = load ptr, ptr %0, align 8
  %69 = ptrtoint ptr %67 to i64
  %70 = ptrtoint ptr %68 to i64
  %71 = sub i64 %69, %70
  %72 = ashr exact i64 %71, 4
  %73 = icmp ugt i64 %72, %66
  br i1 %73, label %.lr.ph.split, label %._crit_edge, !llvm.loop !48

._crit_edge:                                      ; preds = %64, %19, %3
  %.029.lcssa = phi i32 [ 0, %3 ], [ %spec.select, %19 ], [ %.1, %64 ]
  ret i32 %.029.lcssa
}